target datalayout = "e-m:e-p270:32:32-p271:32:32-p272:64:64-i64:64-i128:128-f80:128-n8:16:32:64-S128"
target triple = "x86_64-pc-linux-gnu"

%struct.AVFilterFormatsConfig = type { ptr, ptr, ptr, ptr, ptr }

@query_formats.in_fmts = internal constant [2 x i32] [i32 28, i32 -1], align 4
@query_formats.inpal_fmts = internal constant [2 x i32] [i32 28, i32 -1], align 4
@query_formats.out_fmts = internal constant [2 x i32] [i32 11, i32 -1], align 4

; Function Attrs: nounwind uwtable
define internal i32 @query_formats(ptr noundef %0, ptr noundef %1, ptr noundef %2) #1 {
  %4 = alloca i32, align 4
  %5 = alloca ptr, align 8
  %6 = alloca ptr, align 8
  %7 = alloca ptr, align 8
  %8 = alloca i32, align 4
  %9 = alloca i32, align 4
  store ptr %0, ptr %5, align 8, !tbaa !4
  store ptr %1, ptr %6, align 8, !tbaa !40
  store ptr %2, ptr %7, align 8, !tbaa !40
  call void @llvm.lifetime.start.p0(i64 4, ptr %8) #11
  %10 = call ptr @ff_make_format_list(ptr noundef @query_formats.in_fmts)
  %11 = load ptr, ptr %6, align 8, !tbaa !40
  %12 = getelementptr inbounds ptr, ptr %11, i64 0
  %13 = load ptr, ptr %12, align 8, !tbaa !42
  %14 = getelementptr inbounds nuw %struct.AVFilterFormatsConfig, ptr %13, i32 0, i32 0
  %15 = call i32 @ff_formats_ref(ptr noundef %10, ptr noundef %14)
  store i32 %15, ptr %8, align 4, !tbaa !36
  %16 = icmp slt i32 %15, 0
  br i1 %16, label %33, label %17

17:                                               ; preds = %3
  %18 = call ptr @ff_make_format_list(ptr noundef @query_formats.inpal_fmts)
  %19 = load ptr, ptr %6, align 8, !tbaa !40
  %20 = getelementptr inbounds ptr, ptr %19, i64 1
  %21 = load ptr, ptr %20, align 8, !tbaa !42
  %22 = getelementptr inbounds nuw %struct.AVFilterFormatsConfig, ptr %21, i32 0, i32 0
  %23 = call i32 @ff_formats_ref(ptr noundef %18, ptr noundef %22)
  store i32 %23, ptr %8, align 4, !tbaa !36
  %24 = icmp slt i32 %23, 0
  br i1 %24, label %33, label %25

25:                                               ; preds = %17
  %26 = call ptr @ff_make_format_list(ptr noundef @query_formats.out_fmts)
  %27 = load ptr, ptr %7, align 8, !tbaa !40
  %28 = getelementptr inbounds ptr, ptr %27, i64 0
  %29 = load ptr, ptr %28, align 8, !tbaa !42
  %30 = getelementptr inbounds nuw %struct.AVFilterFormatsConfig, ptr %29, i32 0, i32 0
  %31 = call i32 @ff_formats_ref(ptr noundef %26, ptr noundef %30)
  store i32 %31, ptr %8, align 4, !tbaa !36
  %32 = icmp slt i32 %31, 0
  br i1 %32, label %33, label %35

33:                                               ; preds = %25, %17, %3
  %34 = load i32, ptr %8, align 4, !tbaa !36
  store i32 %34, ptr %4, align 4
  store i32 1, ptr %9, align 4
  br label %36

35:                                               ; preds = %25
  store i32 0, ptr %4, align 4
  store i32 1, ptr %9, align 4
  br label %36

36:                                               ; preds = %35, %33
  call void @llvm.lifetime.end.p0(i64 4, ptr %8) #11
  %37 = load i32, ptr %4, align 4
  ret i32 %37
}