; Function Attrs: nounwind uwtable
define internal range(i32 -2147483648, 1) i32 @query_formats(ptr readnone captures(none) %0, ptr noundef readonly captures(none) %1, ptr noundef readonly captures(none) %2) #1 {
  %4 = tail call ptr @ff_make_format_list(ptr noundef nonnull @query_formats.in_fmts) #13
  %5 = load ptr, ptr %1, align 8, !tbaa !37
  %6 = tail call i32 @ff_formats_ref(ptr noundef %4, ptr noundef %5) #13
  %7 = icmp slt i32 %6, 0
  br i1 %7, label %18, label %8

8:                                                ; preds = %3
  %9 = tail call ptr @ff_make_format_list(ptr noundef nonnull @query_formats.inpal_fmts) #13
  %10 = getelementptr inbounds nuw i8, ptr %1, i64 8
  %11 = load ptr, ptr %10, align 8, !tbaa !37
  %12 = tail call i32 @ff_formats_ref(ptr noundef %9, ptr noundef %11) #13
  %13 = icmp slt i32 %12, 0
  br i1 %13, label %18, label %14

14:                                               ; preds = %8
  %15 = tail call ptr @ff_make_format_list(ptr noundef nonnull @query_formats.out_fmts) #13
  %16 = load ptr, ptr %2, align 8, !tbaa !37
  %17 = tail call i32 @ff_formats_ref(ptr noundef %15, ptr noundef %16) #13
  %spec.select = tail call i32 @llvm.smin.i32(i32 %17, i32 0)
  br label %18

18:                                               ; preds = %14, %3, %8
  %.04 = phi i32 [ %6, %3 ], [ %12, %8 ], [ %spec.select, %14 ]
  ret i32 %.04
}